target datalayout = "e-m:e-p270:32:32-p271:32:32-p272:64:64-i64:64-i128:128-f80:128-n8:16:32:64-S128"
target triple = "x86_64-pc-linux-gnu"

%struct.gmx_ana_selmethod_t = type { ptr, i32, i32, i32, ptr, ptr, ptr, ptr, ptr, ptr, ptr, ptr, ptr, %struct.gmx_ana_selmethod_help_t }
%struct.gmx_ana_selmethod_help_t = type { ptr, ptr, i32, ptr }
%struct.gmx_ana_selvalue_t = type { i32, i32, %union.anon, i32 }
%union.anon = type { ptr }
%"struct.(anonymous namespace)::t_methoddata_kwstr" = type { i32, ptr, %"class.std::vector" }
%"class.std::vector" = type { %"struct.std::_Vector_base" }
%"struct.std::_Vector_base" = type { %"struct.std::_Vector_base<(anonymous namespace)::StringKeywordMatchItem, std::allocator<(anonymous namespace)::StringKeywordMatchItem>>::_Vector_impl" }
%"struct.std::_Vector_base<(anonymous namespace)::StringKeywordMatchItem, std::allocator<(anonymous namespace)::StringKeywordMatchItem>>::_Vector_impl" = type { %"struct.std::_Vector_base<(anonymous namespace)::StringKeywordMatchItem, std::allocator<(anonymous namespace)::StringKeywordMatchItem>>::_Vector_impl_data" }
%"struct.std::_Vector_base<(anonymous namespace)::StringKeywordMatchItem, std::allocator<(anonymous namespace)::StringKeywordMatchItem>>::_Vector_impl_data" = type { ptr, ptr, ptr }
%"class.std::__cxx11::basic_string" = type { %"struct.std::__cxx11::basic_string<char>::_Alloc_hider", i64, %union.anon.3 }
%"struct.std::__cxx11::basic_string<char>::_Alloc_hider" = type { ptr }
%union.anon.3 = type { i64, [8 x i8] }
%"class.std::__shared_count" = type { ptr }
%"class.gmx::SelectionTreeElement" = type { i32, %struct.gmx_ana_selvalue_t, ptr, i32, %union.anon.176, ptr, ptr, %"class.std::shared_ptr.173", %"class.std::shared_ptr.173", %"class.std::__cxx11::basic_string", %"struct.gmx::SelectionLocation" }
%union.anon.176 = type { %struct.anon.177 }
%struct.anon.177 = type { ptr, ptr, ptr, ptr }
%"class.std::shared_ptr.173" = type { %"class.std::__shared_ptr.174" }
%"class.std::__shared_ptr.174" = type { ptr, %"class.std::__shared_count" }
%"struct.gmx::SelectionLocation" = type { i32, i32 }

; Function Attrs: mustprogress nounwind uwtable
define linkonce_odr noundef ptr @_ZNKSt12__shared_ptrIN3gmx20SelectionTreeElementELN9__gnu_cxx12_Lock_policyE2EE3getEv(ptr noundef nonnull align 8 dereferenceable(16) %0) #1 comdat align 2 {
  %2 = alloca ptr, align 8
  store ptr %0, ptr %2, align 8, !tbaa !1203
  %3 = load ptr, ptr %2, align 8
  %4 = getelementptr inbounds nuw %"class.std::__shared_ptr.174", ptr %3, i32 0, i32 0
  %5 = load ptr, ptr %4, align 8, !tbaa !1205
  ret ptr %5
}

; Function Attrs: mustprogress nounwind uwtable
define linkonce_odr noundef ptr @_ZNKSt19__shared_ptr_accessIN3gmx20SelectionTreeElementELN9__gnu_cxx12_Lock_policyE2ELb0ELb0EE6_M_getEv(ptr noundef nonnull align 1 dereferenceable(1) %0) #1 comdat align 2 {
  %2 = alloca ptr, align 8
  store ptr %0, ptr %2, align 8, !tbaa !1201
  %3 = load ptr, ptr %2, align 8
  %4 = call noundef ptr @_ZNKSt12__shared_ptrIN3gmx20SelectionTreeElementELN9__gnu_cxx12_Lock_policyE2EE3getEv(ptr noundef nonnull align 8 dereferenceable(16) %3) #22
  ret ptr %4
}

; Function Attrs: mustprogress nounwind uwtable
define linkonce_odr noundef ptr @_ZNKSt19__shared_ptr_accessIN3gmx20SelectionTreeElementELN9__gnu_cxx12_Lock_policyE2ELb0ELb0EEptEv(ptr noundef nonnull align 1 dereferenceable(1) %0) #1 comdat align 2 {
  %2 = alloca ptr, align 8
  store ptr %0, ptr %2, align 8, !tbaa !1201
  %3 = load ptr, ptr %2, align 8
  %4 = call noundef ptr @_ZNKSt19__shared_ptr_accessIN3gmx20SelectionTreeElementELN9__gnu_cxx12_Lock_policyE2ELb0ELb0EE6_M_getEv(ptr noundef nonnull align 1 dereferenceable(1) %3) #22
  ret ptr %4
}

; Function Attrs: mustprogress nounwind uwtable
define void @_Z33_gmx_selelem_set_kwstr_match_typeRKSt10shared_ptrIN3gmx20SelectionTreeElementEENS0_24SelectionStringMatchTypeE(ptr noundef nonnull align 8 dereferenceable(16) %0, i32 noundef %1) #1 {
  %3 = alloca ptr, align 8
  %4 = alloca i32, align 4
  %5 = alloca ptr, align 8
  %6 = alloca i32, align 4
  store ptr %0, ptr %3, align 8, !tbaa !1187
  store i32 %1, ptr %4, align 4, !tbaa !146
  call void @llvm.lifetime.start.p0(i64 8, ptr %5) #22
  %7 = load ptr, ptr %3, align 8, !tbaa !1187
  %8 = call noundef ptr @_ZNKSt19__shared_ptr_accessIN3gmx20SelectionTreeElementELN9__gnu_cxx12_Lock_policyE2ELb0ELb0EEptEv(ptr noundef nonnull align 1 dereferenceable(1) %7) #22
  %9 = getelementptr inbounds nuw %"class.gmx::SelectionTreeElement", ptr %8, i32 0, i32 4
  %10 = getelementptr inbounds nuw %struct.anon.177, ptr %9, i32 0, i32 1
  %11 = load ptr, ptr %10, align 8, !tbaa !16
  store ptr %11, ptr %5, align 8, !tbaa !58
  %12 = load ptr, ptr %3, align 8, !tbaa !1187
  %13 = call noundef ptr @_ZNKSt19__shared_ptr_accessIN3gmx20SelectionTreeElementELN9__gnu_cxx12_Lock_policyE2ELb0ELb0EEptEv(ptr noundef nonnull align 1 dereferenceable(1) %12) #22
  %14 = getelementptr inbounds nuw %"class.gmx::SelectionTreeElement", ptr %13, i32 0, i32 0
  %15 = load i32, ptr %14, align 8, !tbaa !1189
  %16 = icmp ne i32 %15, 1
  br i1 %16, label %34, label %17

17:                                               ; preds = %2
  %18 = load ptr, ptr %3, align 8, !tbaa !1187
  %19 = call noundef ptr @_ZNKSt19__shared_ptr_accessIN3gmx20SelectionTreeElementELN9__gnu_cxx12_Lock_policyE2ELb0ELb0EEptEv(ptr noundef nonnull align 1 dereferenceable(1) %18) #22
  %20 = getelementptr inbounds nuw %"class.gmx::SelectionTreeElement", ptr %19, i32 0, i32 4
  %21 = getelementptr inbounds nuw %struct.anon.177, ptr %20, i32 0, i32 0
  %22 = load ptr, ptr %21, align 8, !tbaa !16
  %23 = icmp ne ptr %22, null
  br i1 %23, label %24, label %34

24:                                               ; preds = %17
  %25 = load ptr, ptr %3, align 8, !tbaa !1187
  %26 = call noundef ptr @_ZNKSt19__shared_ptr_accessIN3gmx20SelectionTreeElementELN9__gnu_cxx12_Lock_policyE2ELb0ELb0EEptEv(ptr noundef nonnull align 1 dereferenceable(1) %25) #22
  %27 = getelementptr inbounds nuw %"class.gmx::SelectionTreeElement", ptr %26, i32 0, i32 4
  %28 = getelementptr inbounds nuw %struct.anon.177, ptr %27, i32 0, i32 0
  %29 = load ptr, ptr %28, align 8, !tbaa !16
  %30 = getelementptr inbounds nuw %struct.gmx_ana_selmethod_t, ptr %29, i32 0, i32 0
  %31 = load ptr, ptr %30, align 8, !tbaa !1198
  %32 = load ptr, ptr @sm_keyword_str, align 8, !tbaa !1198
  %33 = icmp ne ptr %31, %32
  br i1 %33, label %34, label %35

34:                                               ; preds = %24, %17, %2
  store i32 1, ptr %6, align 4
  br label %39

35:                                               ; preds = %24
  %36 = load i32, ptr %4, align 4, !tbaa !146
  %37 = load ptr, ptr %5, align 8, !tbaa !58
  %38 = getelementptr inbounds nuw %"struct.(anonymous namespace)::t_methoddata_kwstr", ptr %37, i32 0, i32 0
  store i32 %36, ptr %38, align 8, !tbaa !60
  store i32 0, ptr %6, align 4
  br label %39

39:                                               ; preds = %35, %34
  call void @llvm.lifetime.end.p0(i64 8, ptr %5) #22
  %40 = load i32, ptr %6, align 4
  switch i32 %40, label %42 [
    i32 0, label %41
    i32 1, label %41
  ]

41:                                               ; preds = %39, %39
  ret void

42:                                               ; preds = %39
  unreachable
}