; Function Attrs: mustprogress nofree norecurse nosync nounwind willreturn memory(readwrite, inaccessiblemem: none) uwtable
define void @_Z33_gmx_selelem_set_kwstr_match_typeRKSt10shared_ptrIN3gmx20SelectionTreeElementEENS0_24SelectionStringMatchTypeE(ptr noundef nonnull readonly align 8 captures(none) dereferenceable(16) %0, i32 noundef %1) local_unnamed_addr #25 {
  %3 = load ptr, ptr %0, align 8, !tbaa !791
  %4 = getelementptr inbounds nuw i8, ptr %3, i64 56
  %5 = load ptr, ptr %4, align 8, !tbaa !4
  %6 = load i32, ptr %3, align 8, !tbaa !794
  %.not = icmp eq i32 %6, 1
  br i1 %.not, label %7, label %14

7:                                                ; preds = %2
  %8 = getelementptr inbounds nuw i8, ptr %3, i64 48
  %9 = load ptr, ptr %8, align 8, !tbaa !4
  %.not5 = icmp eq ptr %9, null
  br i1 %.not5, label %14, label %10

10:                                               ; preds = %7
  %11 = load ptr, ptr %9, align 8, !tbaa !801
  %12 = load ptr, ptr @sm_keyword_str, align 8, !tbaa !801
  %.not6 = icmp eq ptr %11, %12
  br i1 %.not6, label %13, label %14

13:                                               ; preds = %10
  store i32 %1, ptr %5, align 8, !tbaa !88
  br label %14

14:                                               ; preds = %2, %7, %10, %13
  ret void
}